target datalayout = "e-m:e-p270:32:32-p271:32:32-p272:64:64-i64:64-i128:128-f80:128-n8:16:32:64-S128"
target triple = "x86_64-pc-linux-gnu"

; Function Attrs: nounwind uwtable
define hidden void @Curl_xfer_setup2(ptr noundef %0, i32 noundef %1, i64 noundef %2, i1 noundef zeroext %3, i1 noundef zeroext %4) #0 {
  %6 = alloca ptr, align 8
  %7 = alloca i32, align 4
  %8 = alloca i64, align 8
  %9 = alloca i8, align 1
  %10 = alloca i8, align 1
  %11 = alloca i32, align 4
  %12 = alloca i32, align 4
  store ptr %0, ptr %6, align 8, !tbaa !3
  store i32 %1, ptr %7, align 4, !tbaa !103
  store i64 %2, ptr %8, align 8, !tbaa !10
  %13 = zext i1 %3 to i8
  store i8 %13, ptr %9, align 1, !tbaa !117
  %14 = zext i1 %4 to i8
  store i8 %14, ptr %10, align 1, !tbaa !117
  call void @llvm.lifetime.start.p0(i64 4, ptr %11) #4
  %15 = load i32, ptr %7, align 4, !tbaa !103
  %16 = and i32 %15, 1
  %17 = icmp ne i32 %16, 0
  %18 = select i1 %17, i32 1, i32 -1
  store i32 %18, ptr %11, align 4, !tbaa !103
  call void @llvm.lifetime.start.p0(i64 4, ptr %12) #4
  %19 = load i32, ptr %7, align 4, !tbaa !103
  %20 = and i32 %19, 2
  %21 = icmp ne i32 %20, 0
  %22 = select i1 %21, i32 1, i32 -1
  store i32 %22, ptr %12, align 4, !tbaa !103
  br label %23

23:                                               ; preds = %5
  br label %24

24:                                               ; preds = %23
  br label %25

25:                                               ; preds = %24
  %26 = load ptr, ptr %6, align 8, !tbaa !3
  %27 = load i32, ptr %11, align 4, !tbaa !103
  %28 = load i64, ptr %8, align 8, !tbaa !10
  %29 = load i32, ptr %12, align 4, !tbaa !103
  %30 = load i8, ptr %9, align 1, !tbaa !117, !range !119, !noundef !120
  %31 = trunc i8 %30 to i1
  %32 = load i8, ptr %10, align 1, !tbaa !117, !range !119, !noundef !120
  %33 = trunc i8 %32 to i1
  call void @xfer_setup(ptr noundef %26, i32 noundef %27, i64 noundef %28, i1 noundef zeroext false, i32 noundef %29, i1 noundef zeroext %31, i1 noundef zeroext %33)
  call void @llvm.lifetime.end.p0(i64 4, ptr %12) #4
  call void @llvm.lifetime.end.p0(i64 4, ptr %11) #4
  ret void
}