; Function Attrs: nounwind uwtable
define hidden void @Curl_xfer_setup2(ptr noundef %0, i32 noundef %1, i64 noundef %2, i1 noundef zeroext %3, i1 noundef zeroext %4) local_unnamed_addr #0 {
  %6 = and i32 %1, 1
  %.not = icmp eq i32 %6, 0
  %7 = select i1 %.not, i32 -1, i32 1
  %8 = and i32 %1, 2
  %9 = add nsw i32 %8, -1
  tail call fastcc void @xfer_setup(ptr noundef %0, i32 noundef %7, i64 noundef %2, i1 noundef zeroext false, i32 noundef %9, i1 noundef zeroext %3, i1 noundef zeroext %4)
  ret void
}